; ModuleID = '10/1475.c'
source_filename = "10/1475.c"
target datalayout = "e-m:e-p270:32:32-p271:32:32-p272:64:64-i64:64-f80:128-n8:16:32:64-S128"
target triple = "x86_64-pc-linux-gnu"

@n = common dso_local global i32 0, align 4
@h = common dso_local global [25 x i32] zeroinitializer, align 16
@.str = private unnamed_addr constant [3 x i8] c"%d\00", align 1

; Function Attrs: noinline nounwind uwtable
define dso_local i32 @hack(i32 %0, i32 %1) #0 {
  %3 = alloca i32, align 4
  %4 = alloca i32, align 4
  %5 = alloca i32, align 4
  %6 = alloca i32, align 4
  %7 = alloca i32, align 4
  store i32 %0, i32* %4, align 4
  store i32 %1, i32* %5, align 4
  %8 = load i32, i32* %4, align 4
  %9 = load i32, i32* @n, align 4
  %10 = sub nsw i32 %9, 1
  %11 = icmp eq i32 %8, %10
  br i1 %11, label %12, label %21

12:                                               ; preds = %2
  %13 = load i32, i32* %4, align 4
  %14 = sext i32 %13 to i64
  %15 = getelementptr inbounds [25 x i32], [25 x i32]* @h, i64 0, i64 %14
  %16 = load i32, i32* %15, align 4
  %17 = load i32, i32* %5, align 4
  %18 = icmp sle i32 %16, %17
  br i1 %18, label %19, label %20

19:                                               ; preds = %12
  store i32 1, i32* %3, align 4
  br label %49

20:                                               ; preds = %12
  store i32 0, i32* %3, align 4
  br label %49

21:                                               ; preds = %2
  %22 = load i32, i32* %4, align 4
  %23 = add nsw i32 %22, 1
  %24 = load i32, i32* %5, align 4
  %25 = call i32 @hack(i32 %23, i32 %24)
  store i32 %25, i32* %6, align 4
  store i32 0, i32* %7, align 4
  %26 = load i32, i32* %4, align 4
  %27 = sext i32 %26 to i64
  %28 = getelementptr inbounds [25 x i32], [25 x i32]* @h, i64 0, i64 %27
  %29 = load i32, i32* %28, align 4
  %30 = load i32, i32* %5, align 4
  %31 = icmp sle i32 %29, %30
  br i1 %31, label %32, label %41

32:                                               ; preds = %21
  %33 = load i32, i32* %4, align 4
  %34 = add nsw i32 %33, 1
  %35 = load i32, i32* %4, align 4
  %36 = sext i32 %35 to i64
  %37 = getelementptr inbounds [25 x i32], [25 x i32]* @h, i64 0, i64 %36
  %38 = load i32, i32* %37, align 4
  %39 = call i32 @hack(i32 %34, i32 %38)
  %40 = add nsw i32 1, %39
  store i32 %40, i32* %7, align 4
  br label %41

41:                                               ; preds = %32, %21
  %42 = load i32, i32* %6, align 4
  %43 = load i32, i32* %7, align 4
  %44 = icmp sgt i32 %42, %43
  br i1 %44, label %45, label %47

45:                                               ; preds = %41
  %46 = load i32, i32* %6, align 4
  store i32 %46, i32* %3, align 4
  br label %49

47:                                               ; preds = %41
  %48 = load i32, i32* %7, align 4
  store i32 %48, i32* %3, align 4
  br label %49

49:                                               ; preds = %47, %45, %20, %19
  %50 = load i32, i32* %3, align 4
  ret i32 %50
}

; Function Attrs: noinline nounwind uwtable
define dso_local i32 @main() #0 {
  %1 = alloca i32, align 4
  %2 = alloca i32, align 4
  %3 = alloca i32, align 4
  store i32 0, i32* %1, align 4
  %4 = call i32 (i8*, ...) @__isoc99_scanf(i8* getelementptr inbounds ([3 x i8], [3 x i8]* @.str, i64 0, i64 0), i32* @n)
  store i32 0, i32* %3, align 4
  store i32 0, i32* %2, align 4
  br label %5

5:                                                ; preds = %26, %0
  %6 = load i32, i32* %2, align 4
  %7 = load i32, i32* @n, align 4
  %8 = icmp slt i32 %6, %7
  br i1 %8, label %9, label %29

9:                                                ; preds = %5
  %10 = load i32, i32* %2, align 4
  %11 = sext i32 %10 to i64
  %12 = getelementptr inbounds [25 x i32], [25 x i32]* @h, i64 0, i64 %11
  %13 = call i32 (i8*, ...) @__isoc99_scanf(i8* getelementptr inbounds ([3 x i8], [3 x i8]* @.str, i64 0, i64 0), i32* %12)
  %14 = load i32, i32* %2, align 4
  %15 = sext i32 %14 to i64
  %16 = getelementptr inbounds [25 x i32], [25 x i32]* @h, i64 0, i64 %15
  %17 = load i32, i32* %16, align 4
  %18 = load i32, i32* %3, align 4
  %19 = icmp sgt i32 %17, %18
  br i1 %19, label %20, label %25

20:                                               ; preds = %9
  %21 = load i32, i32* %2, align 4
  %22 = sext i32 %21 to i64
  %23 = getelementptr inbounds [25 x i32], [25 x i32]* @h, i64 0, i64 %22
  %24 = load i32, i32* %23, align 4
  store i32 %24, i32* %3, align 4
  br label %25

25:                                               ; preds = %20, %9
  br label %26

26:                                               ; preds = %25
  %27 = load i32, i32* %2, align 4
  %28 = add nsw i32 %27, 1
  store i32 %28, i32* %2, align 4
  br label %5

29:                                               ; preds = %5
  %30 = load i32, i32* %3, align 4
  %31 = call i32 @hack(i32 0, i32 %30)
  %32 = call i32 (i8*, ...) @printf(i8* getelementptr inbounds ([3 x i8], [3 x i8]* @.str, i64 0, i64 0), i32 %31)
  ret i32 0
}

declare dso_local i32 @__isoc99_scanf(i8*, ...) #1

declare dso_local i32 @printf(i8*, ...) #1


!llvm.module.flags = !{!0}
!llvm.ident = !{!1}

!0 = !{i32 1, !"wchar_size", i32 4}
!1 = !{!"clang version 10.0.0-4ubuntu1 "}
