; ModuleID = 'source-C-CXX/9/1475.c'
source_filename = "source-C-CXX/9/1475.c"
target datalayout = "e-m:e-p270:32:32-p271:32:32-p272:64:64-i64:64-f80:128-n8:16:32:64-S128"
target triple = "x86_64-pc-linux-gnu"

@n = dso_local global i32 0, align 4
@h = dso_local global [25 x i32] zeroinitializer, align 16
@.str = private unnamed_addr constant [3 x i8] c"%d\00", align 1

; Function Attrs: nofree nosync nounwind readonly sspstrong uwtable
define dso_local i32 @hack(i32 %0, i32 %1) local_unnamed_addr #0 {
  %3 = load i32, i32* @n, align 4, !tbaa !5
  %4 = add nsw i32 %3, -1
  %5 = icmp eq i32 %4, %0
  br i1 %5, label %6, label %12

6:                                                ; preds = %2
  %7 = sext i32 %0 to i64
  %8 = getelementptr inbounds [25 x i32], [25 x i32]* @h, i64 0, i64 %7
  %9 = load i32, i32* %8, align 4, !tbaa !5
  %10 = icmp sle i32 %9, %1
  %11 = zext i1 %10 to i32
  br label %26

12:                                               ; preds = %2
  %13 = add nsw i32 %0, 1
  %14 = tail call i32 @hack(i32 %13, i32 %1)
  %15 = sext i32 %0 to i64
  %16 = getelementptr inbounds [25 x i32], [25 x i32]* @h, i64 0, i64 %15
  %17 = load i32, i32* %16, align 4, !tbaa !5
  %18 = icmp sgt i32 %17, %1
  br i1 %18, label %22, label %19

19:                                               ; preds = %12
  %20 = tail call i32 @hack(i32 %13, i32 %17)
  %21 = add nsw i32 %20, 1
  br label %22

22:                                               ; preds = %19, %12
  %23 = phi i32 [ %21, %19 ], [ 0, %12 ]
  %24 = icmp sgt i32 %14, %23
  %25 = select i1 %24, i32 %14, i32 %23
  br label %26

26:                                               ; preds = %6, %22
  %27 = phi i32 [ %25, %22 ], [ %11, %6 ]
  ret i32 %27
}

; Function Attrs: nofree nounwind sspstrong uwtable
define dso_local i32 @main() local_unnamed_addr #1 {
  %1 = tail call i32 (i8*, ...) @__isoc99_scanf(i8* getelementptr inbounds ([3 x i8], [3 x i8]* @.str, i64 0, i64 0), i32* nonnull @n)
  %2 = load i32, i32* @n, align 4, !tbaa !5
  %3 = icmp sgt i32 %2, 0
  br i1 %3, label %4, label %16

4:                                                ; preds = %0, %4
  %5 = phi i64 [ %12, %4 ], [ 0, %0 ]
  %6 = phi i32 [ %11, %4 ], [ 0, %0 ]
  %7 = getelementptr inbounds [25 x i32], [25 x i32]* @h, i64 0, i64 %5
  %8 = tail call i32 (i8*, ...) @__isoc99_scanf(i8* getelementptr inbounds ([3 x i8], [3 x i8]* @.str, i64 0, i64 0), i32* nonnull %7)
  %9 = load i32, i32* %7, align 4, !tbaa !5
  %10 = icmp sgt i32 %9, %6
  %11 = select i1 %10, i32 %9, i32 %6
  %12 = add nuw nsw i64 %5, 1
  %13 = load i32, i32* @n, align 4, !tbaa !5
  %14 = sext i32 %13 to i64
  %15 = icmp slt i64 %12, %14
  br i1 %15, label %4, label %16, !llvm.loop !9

16:                                               ; preds = %4, %0
  %17 = phi i32 [ 0, %0 ], [ %11, %4 ]
  %18 = tail call i32 @hack(i32 0, i32 %17)
  %19 = tail call i32 (i8*, ...) @printf(i8* nonnull dereferenceable(1) getelementptr inbounds ([3 x i8], [3 x i8]* @.str, i64 0, i64 0), i32 %18)
  ret i32 0
}

; Function Attrs: nofree nounwind
declare noundef i32 @__isoc99_scanf(i8* nocapture noundef readonly, ...) local_unnamed_addr #2

; Function Attrs: nofree nounwind
declare noundef i32 @printf(i8* nocapture noundef readonly, ...) local_unnamed_addr #2


!llvm.module.flags = !{!0, !1, !2, !3}
!llvm.ident = !{!4}

!0 = !{i32 1, !"wchar_size", i32 4}
!1 = !{i32 7, !"PIC Level", i32 2}
!2 = !{i32 7, !"PIE Level", i32 2}
!3 = !{i32 7, !"uwtable", i32 1}
!4 = !{!"clang version 13.0.0"}
!5 = !{!6, !6, i64 0}
!6 = !{!"int", !7, i64 0}
!7 = !{!"omnipotent char", !8, i64 0}
!8 = !{!"Simple C/C++ TBAA"}
!9 = distinct !{!9, !10}
!10 = !{!"llvm.loop.mustprogress"}
